; Function Attrs: nounwind allocsize(0,1) uwtable
define hidden noalias ptr @mi_calloc(i64 noundef %0, i64 noundef %1) #1 {
  %3 = tail call align 8 ptr @llvm.threadlocal.address.p0(ptr align 8 @_mi_heap_default)
  %4 = load ptr, ptr %3, align 8, !tbaa !3
  %.not.i = icmp eq i64 %0, 1
  br i1 %.not.i, label %9, label %5

5:                                                ; preds = %2
  %6 = tail call { i64, i1 } @llvm.umul.with.overflow.i64(i64 range(i64 2, 1) %0, i64 %1)
  %7 = extractvalue { i64, i1 } %6, 1
  %8 = extractvalue { i64, i1 } %6, 0
  br i1 %7, label %mi_heap_calloc.exit, label %9, !prof !17

9:                                                ; preds = %5, %2
  %storemerge.i.ph.i = phi i64 [ %1, %2 ], [ %8, %5 ]
  %10 = icmp ult i64 %storemerge.i.ph.i, 1025
  br i1 %10, label %11, label %34, !prof !8

11:                                               ; preds = %9
  %12 = add nuw nsw i64 %storemerge.i.ph.i, 7
  %13 = lshr i64 %12, 3
  %14 = getelementptr inbounds nuw i8, ptr %4, i64 232
  %15 = getelementptr inbounds nuw [129 x ptr], ptr %14, i64 0, i64 %13
  %16 = load ptr, ptr %15, align 8, !tbaa !9
  %17 = getelementptr inbounds nuw i8, ptr %16, i64 8
  %18 = load ptr, ptr %17, align 8, !tbaa !11
  %19 = icmp eq ptr %18, null
  br i1 %19, label %20, label %22, !prof !17

20:                                               ; preds = %11
  %21 = tail call noalias ptr @_mi_malloc_generic(ptr noundef nonnull %4, i64 noundef %storemerge.i.ph.i, i1 noundef zeroext true, i64 noundef 0) #19
  br label %mi_heap_calloc.exit

22:                                               ; preds = %11
  %.val.i.i.i.i.i.i = load i64, ptr %18, align 8, !tbaa !18
  %23 = inttoptr i64 %.val.i.i.i.i.i.i to ptr
  store ptr %23, ptr %17, align 8, !tbaa !11
  %24 = getelementptr inbounds nuw i8, ptr %16, i64 24
  %25 = load i16, ptr %24, align 8, !tbaa !20
  %26 = add i16 %25, 1
  store i16 %26, ptr %24, align 8, !tbaa !20
  %27 = getelementptr inbounds nuw i8, ptr %16, i64 7
  %28 = load i8, ptr %27, align 1
  %29 = and i8 %28, 1
  %.not.i.i.i.i.i.i = icmp eq i8 %29, 0
  br i1 %.not.i.i.i.i.i.i, label %31, label %30

30:                                               ; preds = %22
  store i64 0, ptr %18, align 8, !tbaa !18
  br label %mi_heap_calloc.exit

31:                                               ; preds = %22
  %32 = getelementptr inbounds nuw i8, ptr %16, i64 32
  %33 = load i64, ptr %32, align 8, !tbaa !21
  call void @llvm.assume(i1 true) [ "align"(ptr %18, i64 8) ]
  tail call void @llvm.memset.p0.i64(ptr nonnull align 8 %18, i8 0, i64 %33, i1 false)
  br label %mi_heap_calloc.exit

34:                                               ; preds = %9
  %35 = tail call noalias ptr @_mi_malloc_generic(ptr noundef %4, i64 noundef %storemerge.i.ph.i, i1 noundef zeroext true, i64 noundef 0) #19
  br label %mi_heap_calloc.exit

mi_heap_calloc.exit:                              ; preds = %5, %20, %30, %31, %34
  %.0.i = phi ptr [ null, %5 ], [ %35, %34 ], [ %21, %20 ], [ %18, %30 ], [ %18, %31 ]
  ret ptr %.0.i
}